; Function Attrs: mustprogress nounwind uwtable
define hidden noundef ptr @_ZN13InstanceKlass24compute_secondary_supersEiP5ArrayIPS_E(ptr noundef nonnull align 8 dereferenceable(464) %0, i32 noundef %1, ptr noundef %2) unnamed_addr #0 align 2 {
  %4 = load i32, ptr %2, align 8
  %5 = sub i32 0, %1
  %6 = icmp eq i32 %4, %5
  br i1 %6, label %7, label %10

7:                                                ; preds = %3
  %8 = load ptr, ptr @_ZN8Universe22_the_empty_klass_arrayE, align 8
  %9 = load i64, ptr @_ZN8Universe23_the_empty_klass_bitmapE, align 8
  tail call void @_ZN5Klass20set_secondary_supersEP5ArrayIPS_Em(ptr noundef nonnull align 8 dereferenceable(196) %0, ptr noundef %8, i64 noundef %9) #26
  br label %.loopexit

10:                                               ; preds = %3
  %11 = icmp eq i32 %1, 0
  br i1 %11, label %12, label %20

12:                                               ; preds = %10
  %13 = load i8, ptr @UseSecondarySupersTable, align 1
  %14 = trunc i8 %13 to i1
  br i1 %14, label %16, label %15

15:                                               ; preds = %12
  tail call void @_ZN5Klass20set_secondary_supersEP5ArrayIPS_E(ptr noundef nonnull align 8 dereferenceable(196) %0, ptr noundef nonnull %2) #26
  br label %.loopexit

16:                                               ; preds = %12
  %17 = icmp slt i32 %4, 2
  br i1 %17, label %18, label %20

18:                                               ; preds = %16
  %19 = tail call noundef i64 @_ZN5Klass31compute_secondary_supers_bitmapEP5ArrayIPS_E(ptr noundef nonnull %2) #26
  tail call void @_ZN5Klass20set_secondary_supersEP5ArrayIPS_Em(ptr noundef nonnull align 8 dereferenceable(196) %0, ptr noundef nonnull %2, i64 noundef %19) #26
  br label %.loopexit

20:                                               ; preds = %10, %16
  %21 = tail call noundef ptr @_Z23resource_allocate_bytesmN17AllocFailStrategy13AllocFailEnumE(i64 noundef 24, i32 noundef 0) #26
  %22 = load i32, ptr %2, align 8
  %23 = tail call noundef ptr @_ZN30GrowableArrayResourceAllocator8allocateEii(i32 noundef %22, i32 noundef 8) #26
  store i32 0, ptr %21, align 4
  %24 = getelementptr inbounds i8, ptr %21, i64 4
  store i32 %22, ptr %24, align 4
  %25 = getelementptr inbounds i8, ptr %21, i64 8
  store ptr %23, ptr %25, align 8
  %26 = icmp sgt i32 %22, 0
  br i1 %26, label %.lr.ph.preheader.i.i, label %_ZN13GrowableArrayIP5KlassEC2Ei.exit

.lr.ph.preheader.i.i:                             ; preds = %20
  %27 = zext nneg i32 %22 to i64
  %28 = shl nuw nsw i64 %27, 3
  tail call void @llvm.memset.p0.i64(ptr align 8 %23, i8 0, i64 %28, i1 false)
  br label %_ZN13GrowableArrayIP5KlassEC2Ei.exit

_ZN13GrowableArrayIP5KlassEC2Ei.exit:             ; preds = %20, %.lr.ph.preheader.i.i
  %29 = getelementptr inbounds i8, ptr %21, i64 16
  store i64 0, ptr %29, align 8
  %30 = load i32, ptr %2, align 8
  %31 = icmp sgt i32 %30, 0
  br i1 %31, label %.lr.ph, label %.loopexit

.lr.ph:                                           ; preds = %_ZN13GrowableArrayIP5KlassEC2Ei.exit
  %32 = getelementptr inbounds i8, ptr %2, i64 8
  br label %33

33:                                               ; preds = %.lr.ph, %_ZN26GrowableArrayWithAllocatorIP5Klass13GrowableArrayIS1_EE4pushERKS1_.exit
  %indvars.iv = phi i64 [ 0, %.lr.ph ], [ %indvars.iv.next, %_ZN26GrowableArrayWithAllocatorIP5Klass13GrowableArrayIS1_EE4pushERKS1_.exit ]
  %34 = getelementptr inbounds ptr, ptr %32, i64 %indvars.iv
  %35 = load ptr, ptr %34, align 8
  %36 = load i32, ptr %21, align 8
  %37 = load i32, ptr %24, align 4
  %38 = icmp eq i32 %36, %37
  br i1 %38, label %39, label %_ZN26GrowableArrayWithAllocatorIP5Klass13GrowableArrayIS1_EE4pushERKS1_.exit

39:                                               ; preds = %33
  %40 = add nsw i32 %36, 1
  %41 = icmp sgt i32 %36, -1
  %42 = xor i32 %36, -2147483648
  %43 = and i32 %42, %40
  %44 = icmp eq i32 %43, 0
  %45 = and i1 %41, %44
  %46 = tail call range(i32 0, 33) i32 @llvm.ctlz.i32(i32 %40, i1 true)
  %47 = sub nuw nsw i32 32, %46
  %48 = shl nuw i32 1, %47
  %.0.i.i.i.i.i = select i1 %45, i32 %40, i32 %48
  tail call void @_ZN26GrowableArrayWithAllocatorIP5Klass13GrowableArrayIS1_EE9expand_toEi(ptr noundef nonnull align 8 dereferenceable(16) %21, i32 noundef %.0.i.i.i.i.i)
  %.pre.i.i = load i32, ptr %21, align 8
  br label %_ZN26GrowableArrayWithAllocatorIP5Klass13GrowableArrayIS1_EE4pushERKS1_.exit

_ZN26GrowableArrayWithAllocatorIP5Klass13GrowableArrayIS1_EE4pushERKS1_.exit: ; preds = %33, %39
  %49 = phi i32 [ %.pre.i.i, %39 ], [ %36, %33 ]
  %50 = add nsw i32 %49, 1
  store i32 %50, ptr %21, align 8
  %51 = load ptr, ptr %25, align 8
  %52 = sext i32 %49 to i64
  %53 = getelementptr inbounds ptr, ptr %51, i64 %52
  store ptr %35, ptr %53, align 8
  %indvars.iv.next = add nuw nsw i64 %indvars.iv, 1
  %54 = load i32, ptr %2, align 8
  %55 = sext i32 %54 to i64
  %56 = icmp slt i64 %indvars.iv.next, %55
  br i1 %56, label %33, label %.loopexit, !llvm.loop !40

.loopexit:                                        ; preds = %_ZN26GrowableArrayWithAllocatorIP5Klass13GrowableArrayIS1_EE4pushERKS1_.exit, %_ZN13GrowableArrayIP5KlassEC2Ei.exit, %18, %15, %7
  %.020 = phi ptr [ null, %7 ], [ null, %18 ], [ null, %15 ], [ %21, %_ZN13GrowableArrayIP5KlassEC2Ei.exit ], [ %21, %_ZN26GrowableArrayWithAllocatorIP5Klass13GrowableArrayIS1_EE4pushERKS1_.exit ]
  ret ptr %.020
}